target datalayout = "e-m:e-p270:32:32-p271:32:32-p272:64:64-i64:64-i128:128-f80:128-n8:16:32:64-S128"
target triple = "x86_64-pc-linux-gnu"

%struct.JNINativeInterface_ = type { ptr, ptr, ptr, ptr, ptr, ptr, ptr, ptr, ptr, ptr, ptr, ptr, ptr, ptr, ptr, ptr, ptr, ptr, ptr, ptr, ptr, ptr, ptr, ptr, ptr, ptr, ptr, ptr, ptr, ptr, ptr, ptr, ptr, ptr, ptr, ptr, ptr, ptr, ptr, ptr, ptr, ptr, ptr, ptr, ptr, ptr, ptr, ptr, ptr, ptr, ptr, ptr, ptr, ptr, ptr, ptr, ptr, ptr, ptr, ptr, ptr, ptr, ptr, ptr, ptr, ptr, ptr, ptr, ptr, ptr, ptr, ptr, ptr, ptr, ptr, ptr, ptr, ptr, ptr, ptr, ptr, ptr, ptr, ptr, ptr, ptr, ptr, ptr, ptr, ptr, ptr, ptr, ptr, ptr, ptr, ptr, ptr, ptr, ptr, ptr, ptr, ptr, ptr, ptr, ptr, ptr, ptr, ptr, ptr, ptr, ptr, ptr, ptr, ptr, ptr, ptr, ptr, ptr, ptr, ptr, ptr, ptr, ptr, ptr, ptr, ptr, ptr, ptr, ptr, ptr, ptr, ptr, ptr, ptr, ptr, ptr, ptr, ptr, ptr, ptr, ptr, ptr, ptr, ptr, ptr, ptr, ptr, ptr, ptr, ptr, ptr, ptr, ptr, ptr, ptr, ptr, ptr, ptr, ptr, ptr, ptr, ptr, ptr, ptr, ptr, ptr, ptr, ptr, ptr, ptr, ptr, ptr, ptr, ptr, ptr, ptr, ptr, ptr, ptr, ptr, ptr, ptr, ptr, ptr, ptr, ptr, ptr, ptr, ptr, ptr, ptr, ptr, ptr, ptr, ptr, ptr, ptr, ptr, ptr, ptr, ptr, ptr, ptr, ptr, ptr, ptr, ptr, ptr, ptr, ptr, ptr, ptr, ptr, ptr, ptr, ptr, ptr, ptr, ptr, ptr, ptr, ptr, ptr, ptr, ptr, ptr, ptr, ptr, ptr, ptr, ptr, ptr, ptr, ptr, ptr }
%struct.GtkApi = type { i32, ptr, ptr, ptr, ptr, ptr, ptr, ptr, ptr, ptr, ptr, ptr, ptr, ptr, ptr, ptr, ptr, ptr, ptr, ptr, ptr, ptr, ptr, ptr, ptr, ptr, ptr, ptr, ptr, ptr, ptr, ptr, ptr, ptr, ptr, ptr, ptr, ptr, ptr, ptr, ptr, ptr, ptr, ptr, ptr, ptr, ptr, ptr, ptr, ptr, ptr, ptr, ptr, ptr, ptr, ptr, ptr, ptr, ptr, ptr, ptr, ptr, ptr, ptr, ptr, ptr, ptr, ptr, ptr, ptr, ptr, ptr, ptr, ptr, ptr, ptr, ptr, ptr, ptr, ptr, ptr, ptr, ptr, ptr, ptr, ptr, ptr, ptr, ptr, ptr, ptr, ptr, ptr, ptr, ptr, ptr, ptr, ptr, ptr, ptr, ptr, ptr, ptr, ptr, ptr }

@conversionBuffer = internal global [382 x i8] zeroinitializer, align 16
@gtk = external global ptr, align 8

; Function Attrs: nounwind uwtable
define hidden ptr @getStrFor(ptr noundef %0, ptr noundef %1) #0 {
  %3 = alloca ptr, align 8
  %4 = alloca ptr, align 8
  %5 = alloca i32, align 4
  store ptr %0, ptr %3, align 8
  store ptr %1, ptr %4, align 8
  %6 = load ptr, ptr %3, align 8
  %7 = load ptr, ptr %6, align 8
  %8 = getelementptr inbounds %struct.JNINativeInterface_, ptr %7, i32 0, i32 164
  %9 = load ptr, ptr %8, align 8
  %10 = load ptr, ptr %3, align 8
  %11 = load ptr, ptr %4, align 8
  %12 = call i32 %9(ptr noundef %10, ptr noundef %11)
  store i32 %12, ptr %5, align 4
  %13 = load i32, ptr %5, align 4
  %14 = icmp sgt i32 %13, 127
  br i1 %14, label %15, label %16

15:                                               ; preds = %2
  store i32 127, ptr %5, align 4
  br label %16

16:                                               ; preds = %15, %2
  call void @llvm.memset.p0.i64(ptr align 16 @conversionBuffer, i8 0, i64 382, i1 false)
  %17 = load ptr, ptr %3, align 8
  %18 = load ptr, ptr %17, align 8
  %19 = getelementptr inbounds %struct.JNINativeInterface_, ptr %18, i32 0, i32 221
  %20 = load ptr, ptr %19, align 8
  %21 = load ptr, ptr %3, align 8
  %22 = load ptr, ptr %4, align 8
  %23 = load i32, ptr %5, align 4
  call void %20(ptr noundef %21, ptr noundef %22, i32 noundef 0, i32 noundef %23, ptr noundef @conversionBuffer)
  ret ptr @conversionBuffer
}

; Function Attrs: nounwind uwtable
define void @Java_com_sun_java_swing_plaf_gtk_GTKEngine_native_1paint_1shadow(ptr noundef %0, ptr noundef %1, i32 noundef %2, i32 noundef %3, i32 noundef %4, ptr noundef %5, i32 noundef %6, i32 noundef %7, i32 noundef %8, i32 noundef %9, i32 noundef %10, i32 noundef %11) #0 {
  %13 = alloca ptr, align 8
  %14 = alloca ptr, align 8
  %15 = alloca i32, align 4
  %16 = alloca i32, align 4
  %17 = alloca i32, align 4
  %18 = alloca ptr, align 8
  %19 = alloca i32, align 4
  %20 = alloca i32, align 4
  %21 = alloca i32, align 4
  %22 = alloca i32, align 4
  %23 = alloca i32, align 4
  %24 = alloca i32, align 4
  store ptr %0, ptr %13, align 8
  store ptr %1, ptr %14, align 8
  store i32 %2, ptr %15, align 4
  store i32 %3, ptr %16, align 4
  store i32 %4, ptr %17, align 4
  store ptr %5, ptr %18, align 8
  store i32 %6, ptr %19, align 4
  store i32 %7, ptr %20, align 4
  store i32 %8, ptr %21, align 4
  store i32 %9, ptr %22, align 4
  store i32 %10, ptr %23, align 4
  store i32 %11, ptr %24, align 4
  %25 = load ptr, ptr @gtk, align 8
  %26 = getelementptr inbounds %struct.GtkApi, ptr %25, i32 0, i32 31
  %27 = load ptr, ptr %26, align 8
  call void %27()
  %28 = load ptr, ptr @gtk, align 8
  %29 = getelementptr inbounds %struct.GtkApi, ptr %28, i32 0, i32 17
  %30 = load ptr, ptr %29, align 8
  %31 = load i32, ptr %15, align 4
  %32 = load i32, ptr %16, align 4
  %33 = load i32, ptr %17, align 4
  %34 = load ptr, ptr %13, align 8
  %35 = load ptr, ptr %18, align 8
  %36 = call ptr @getStrFor(ptr noundef %34, ptr noundef %35)
  %37 = load i32, ptr %19, align 4
  %38 = load i32, ptr %20, align 4
  %39 = load i32, ptr %21, align 4
  %40 = load i32, ptr %22, align 4
  %41 = load i32, ptr %23, align 4
  %42 = load i32, ptr %24, align 4
  call void %30(i32 noundef %31, i32 noundef %32, i32 noundef %33, ptr noundef %36, i32 noundef %37, i32 noundef %38, i32 noundef %39, i32 noundef %40, i32 noundef %41, i32 noundef %42)
  %43 = load ptr, ptr @gtk, align 8
  %44 = getelementptr inbounds %struct.GtkApi, ptr %43, i32 0, i32 32
  %45 = load ptr, ptr %44, align 8
  call void %45()
  ret void
}